target datalayout = "e-m:e-p270:32:32-p271:32:32-p272:64:64-i64:64-i128:128-f80:128-n8:16:32:64-S128"
target triple = "x86_64-pc-linux-gnu"

%struct._GdkRGBA = type { double, double, double, double }
%struct.darktable_t = type { %struct.dt_codepath_t, i32, i32, ptr, ptr, ptr, ptr, ptr, ptr, ptr, ptr, ptr, ptr, ptr, ptr, ptr, ptr, ptr, ptr, ptr, ptr, ptr, ptr, ptr, ptr, ptr, ptr, ptr, ptr, ptr, [64 x %struct.dt_pthread_mutex_t], %struct.dt_pthread_mutex_t, %struct.dt_pthread_mutex_t, %struct.dt_pthread_mutex_t, %struct.dt_pthread_mutex_t, %struct.dt_pthread_mutex_t, ptr, ptr, ptr, ptr, ptr, ptr, ptr, ptr, ptr, ptr, ptr, ptr, ptr, %struct.dt_lua_state_t, ptr, double, ptr, i32, [47 x i32], i32, i32, ptr, ptr, %struct.dt_sys_resources_t, %struct.dt_backthumb_t, %struct.dt_gimp_t }
%struct.dt_codepath_t = type { i8, [3 x i8] }
%struct.dt_pthread_mutex_t = type { %union.pthread_mutex_t }
%union.pthread_mutex_t = type { %struct.__pthread_mutex_s }
%struct.__pthread_mutex_s = type { i32, i32, i32, i32, i32, i16, i16, %struct.__pthread_internal_list }
%struct.__pthread_internal_list = type { ptr, ptr }
%struct.dt_lua_state_t = type { i32 }
%struct.dt_sys_resources_t = type { i64, i64, ptr, ptr, i32 }
%struct.dt_backthumb_t = type { double, double, i32, i32, i32, i32 }
%struct.dt_gimp_t = type { i32, ptr, ptr, i32, i32 }
%struct.dt_iop_module_t = type { i32, ptr, ptr, ptr, ptr, ptr, ptr, ptr, ptr, ptr, ptr, ptr, ptr, ptr, ptr, ptr, ptr, ptr, ptr, ptr, ptr, ptr, ptr, ptr, ptr, ptr, ptr, ptr, ptr, ptr, ptr, ptr, ptr, ptr, ptr, ptr, ptr, ptr, ptr, ptr, ptr, ptr, ptr, ptr, ptr, ptr, ptr, ptr, ptr, ptr, ptr, ptr, ptr, ptr, ptr, ptr, ptr, [20 x i8], i32, i32, i32, i32, i32, i32, i32, [8 x i8], [4 x float], [4 x float], [4 x float], [4 x float], [4 x float], [4 x float], ptr, %struct.dt_dev_histogram_stats_t, [4 x i32], i32, i32, ptr, i32, i32, ptr, ptr, i32, ptr, %struct.dt_pthread_mutex_t, ptr, ptr, ptr, ptr, %struct.anon, ptr, ptr, ptr, ptr, ptr, ptr, ptr, i32, ptr, ptr, ptr, ptr, ptr, ptr, ptr, i32, ptr, i32, [128 x i8], i32, ptr, ptr, i32, [12 x i8] }
%struct.dt_dev_histogram_stats_t = type { i32, i64, i32, i32 }
%struct.anon = type { %struct.anon.0, %struct.anon.1 }
%struct.anon.0 = type { ptr, ptr }
%struct.anon.1 = type { ptr, i32 }
%struct.dt_iop_gui_blend_data_t = type { i32, i32, i32, i32, i32, i32, i32, ptr, ptr, ptr, ptr, ptr, ptr, ptr, ptr, ptr, ptr, ptr, ptr, ptr, [2 x %struct.dt_iop_gui_blendif_filter_t], ptr, ptr, ptr, ptr, ptr, ptr, ptr, ptr, ptr, ptr, ptr, ptr, i32, i32, ptr, i32, [8 x [2 x i32]], i32, i32, ptr, i32, ptr, ptr, ptr, [5 x ptr], [5 x i32], ptr, ptr, ptr, i32, ptr, ptr, i32, %struct.dt_pthread_mutex_t }
%struct.dt_iop_gui_blendif_filter_t = type { ptr, ptr, [4 x ptr], ptr, ptr, ptr }
%struct.dt_gui_gtk_t = type { ptr, %struct.dt_gui_widgets_t, %struct.dt_gui_scrollbars_t, i32, ptr, i32, [39 x %struct._GdkRGBA], i32, i32, i32, i32, i32, double, double, double, double, ptr, double, double, double, double, i32, i32, [4096 x i8], i32, i32, i32, %struct.dt_pthread_mutex_t }
%struct.dt_gui_widgets_t = type { ptr, ptr, ptr, ptr, i32, i32, i32 }
%struct.dt_gui_scrollbars_t = type { ptr, ptr, i32 }
%struct.dt_develop_blend_params_t = type { i32, i32, i32, float, float, i32, i32, i32, float, i32, float, float, float, float, i32, [2 x i32], [64 x float], [16 x float], [20 x i8], i32, i32, i32 }

@darktable = external global %struct.darktable_t, align 8

; Function Attrs: nounwind uwtable
define internal i32 @_blendif_blend_parameter_enabled(i32 noundef %0, i32 noundef %1) #0 {
  %3 = alloca i32, align 4
  %4 = alloca i32, align 4
  %5 = alloca i32, align 4
  store i32 %0, ptr %4, align 4, !tbaa !80
  store i32 %1, ptr %5, align 4, !tbaa !80
  %6 = load i32, ptr %4, align 4, !tbaa !80
  %7 = icmp eq i32 %6, 4
  br i1 %7, label %8, label %13

8:                                                ; preds = %2
  %9 = load i32, ptr %5, align 4, !tbaa !80
  %10 = and i32 %9, 2147483647
  switch i32 %10, label %12 [
    i32 6, label %11
    i32 4, label %11
    i32 7, label %11
    i32 37, label %11
    i32 38, label %11
    i32 39, label %11
    i32 33, label %11
    i32 34, label %11
    i32 35, label %11
  ]

11:                                               ; preds = %8, %8, %8, %8, %8, %8, %8, %8, %8
  store i32 1, ptr %3, align 4
  br label %14

12:                                               ; preds = %8
  store i32 0, ptr %3, align 4
  br label %14

13:                                               ; preds = %2
  store i32 0, ptr %3, align 4
  br label %14

14:                                               ; preds = %13, %12, %11
  %15 = load i32, ptr %3, align 4
  ret i32 %15
}

; Function Attrs: nounwind uwtable
define internal void @_blendop_blend_mode_callback(ptr noundef %0, ptr noundef %1) #0 {
  %3 = alloca ptr, align 8
  %4 = alloca ptr, align 8
  %5 = alloca ptr, align 8
  %6 = alloca i32, align 4
  store ptr %0, ptr %3, align 8, !tbaa !11
  store ptr %1, ptr %4, align 8, !tbaa !31
  %7 = load ptr, ptr getelementptr inbounds nuw (%struct.darktable_t, ptr @darktable, i32 0, i32 14), align 8, !tbaa !39
  %8 = getelementptr inbounds nuw %struct.dt_gui_gtk_t, ptr %7, i32 0, i32 5
  %9 = load i32, ptr %8, align 8, !tbaa !72
  %10 = icmp ne i32 %9, 0
  br i1 %10, label %11, label %12

11:                                               ; preds = %2
  br label %67

12:                                               ; preds = %2
  call void @llvm.lifetime.start.p0(i64 8, ptr %5) #11
  %13 = load ptr, ptr %4, align 8, !tbaa !31
  %14 = getelementptr inbounds nuw %struct.dt_iop_gui_blend_data_t, ptr %13, i32 0, i32 7
  %15 = load ptr, ptr %14, align 8, !tbaa !134
  %16 = getelementptr inbounds nuw %struct.dt_iop_module_t, ptr %15, i32 0, i32 86
  %17 = load ptr, ptr %16, align 8, !tbaa !77
  store ptr %17, ptr %5, align 8, !tbaa !78
  call void @llvm.lifetime.start.p0(i64 4, ptr %6) #11
  %18 = load ptr, ptr %3, align 8, !tbaa !11
  %19 = call ptr @dt_bauhaus_combobox_get_data(ptr noundef %18)
  %20 = ptrtoint ptr %19 to i64
  %21 = trunc i64 %20 to i32
  store i32 %21, ptr %6, align 4, !tbaa !80
  %22 = load i32, ptr %6, align 4, !tbaa !80
  %23 = load ptr, ptr %5, align 8, !tbaa !78
  %24 = getelementptr inbounds nuw %struct.dt_develop_blend_params_t, ptr %23, i32 0, i32 2
  %25 = load i32, ptr %24, align 4, !tbaa !252
  %26 = and i32 %25, 255
  %27 = icmp ne i32 %22, %26
  br i1 %27, label %28, label %66

28:                                               ; preds = %12
  %29 = load i32, ptr %6, align 4, !tbaa !80
  %30 = load ptr, ptr %5, align 8, !tbaa !78
  %31 = getelementptr inbounds nuw %struct.dt_develop_blend_params_t, ptr %30, i32 0, i32 2
  %32 = load i32, ptr %31, align 4, !tbaa !252
  %33 = and i32 %32, -2147483648
  %34 = or i32 %29, %33
  %35 = load ptr, ptr %5, align 8, !tbaa !78
  %36 = getelementptr inbounds nuw %struct.dt_develop_blend_params_t, ptr %35, i32 0, i32 2
  store i32 %34, ptr %36, align 4, !tbaa !252
  %37 = load ptr, ptr %4, align 8, !tbaa !31
  %38 = getelementptr inbounds nuw %struct.dt_iop_gui_blend_data_t, ptr %37, i32 0, i32 33
  %39 = load i32, ptr %38, align 8, !tbaa !250
  %40 = load ptr, ptr %5, align 8, !tbaa !78
  %41 = getelementptr inbounds nuw %struct.dt_develop_blend_params_t, ptr %40, i32 0, i32 2
  %42 = load i32, ptr %41, align 4, !tbaa !252
  %43 = call i32 @_blendif_blend_parameter_enabled(i32 noundef %39, i32 noundef %42)
  %44 = icmp ne i32 %43, 0
  br i1 %44, label %45, label %49

45:                                               ; preds = %28
  %46 = load ptr, ptr %4, align 8, !tbaa !31
  %47 = getelementptr inbounds nuw %struct.dt_iop_gui_blend_data_t, ptr %46, i32 0, i32 26
  %48 = load ptr, ptr %47, align 8, !tbaa !254
  call void @gtk_widget_show(ptr noundef %48)
  br label %61

49:                                               ; preds = %28
  %50 = load ptr, ptr %5, align 8, !tbaa !78
  %51 = getelementptr inbounds nuw %struct.dt_develop_blend_params_t, ptr %50, i32 0, i32 3
  store float 0.000000e+00, ptr %51, align 4, !tbaa !255
  %52 = load ptr, ptr %4, align 8, !tbaa !31
  %53 = getelementptr inbounds nuw %struct.dt_iop_gui_blend_data_t, ptr %52, i32 0, i32 26
  %54 = load ptr, ptr %53, align 8, !tbaa !254
  %55 = load ptr, ptr %5, align 8, !tbaa !78
  %56 = getelementptr inbounds nuw %struct.dt_develop_blend_params_t, ptr %55, i32 0, i32 3
  %57 = load float, ptr %56, align 4, !tbaa !255
  call void @dt_bauhaus_slider_set(ptr noundef %54, float noundef %57)
  %58 = load ptr, ptr %4, align 8, !tbaa !31
  %59 = getelementptr inbounds nuw %struct.dt_iop_gui_blend_data_t, ptr %58, i32 0, i32 26
  %60 = load ptr, ptr %59, align 8, !tbaa !254
  call void @gtk_widget_hide(ptr noundef %60)
  br label %61

61:                                               ; preds = %49, %45
  %62 = load ptr, ptr getelementptr inbounds nuw (%struct.darktable_t, ptr @darktable, i32 0, i32 9), align 8, !tbaa !132
  %63 = load ptr, ptr %4, align 8, !tbaa !31
  %64 = getelementptr inbounds nuw %struct.dt_iop_gui_blend_data_t, ptr %63, i32 0, i32 7
  %65 = load ptr, ptr %64, align 8, !tbaa !134
  call void @dt_dev_add_history_item(ptr noundef %62, ptr noundef %65, i32 noundef 1)
  br label %66

66:                                               ; preds = %61, %12
  call void @llvm.lifetime.end.p0(i64 4, ptr %6) #11
  call void @llvm.lifetime.end.p0(i64 8, ptr %5) #11
  br label %67

67:                                               ; preds = %66, %11
  ret void
}