; Function Attrs: nounwind uwtable
define internal void @_blendop_blend_mode_callback(ptr noundef %0, ptr noundef readonly captures(none) %1) #0 {
  %3 = load ptr, ptr getelementptr inbounds nuw (i8, ptr @darktable, i64 104), align 8, !tbaa !33
  %4 = getelementptr inbounds nuw i8, ptr %3, i64 96
  %5 = load i32, ptr %4, align 8, !tbaa !66
  %.not = icmp eq i32 %5, 0
  br i1 %.not, label %6, label %35

6:                                                ; preds = %2
  %7 = getelementptr inbounds nuw i8, ptr %1, i64 32
  %8 = load ptr, ptr %7, align 8, !tbaa !79
  %9 = getelementptr inbounds nuw i8, ptr %8, i64 760
  %10 = load ptr, ptr %9, align 8, !tbaa !71
  %11 = tail call ptr @dt_bauhaus_combobox_get_data(ptr noundef %0) #18
  %12 = ptrtoint ptr %11 to i64
  %13 = trunc i64 %12 to i32
  %14 = getelementptr inbounds nuw i8, ptr %10, i64 8
  %15 = load i32, ptr %14, align 4, !tbaa !220
  %16 = and i32 %15, 255
  %.not14 = icmp eq i32 %16, %13
  br i1 %.not14, label %35, label %17

17:                                               ; preds = %6
  %18 = and i32 %15, -2147483648
  %19 = or i32 %18, %13
  store i32 %19, ptr %14, align 4, !tbaa !220
  %20 = getelementptr inbounds nuw i8, ptr %1, i64 376
  %21 = load i32, ptr %20, align 8, !tbaa !218
  %22 = icmp eq i32 %21, 4
  br i1 %22, label %23, label %27

23:                                               ; preds = %17
  %24 = and i32 %13, 2147483647
  switch i32 %24, label %27 [
    i32 6, label %_blendif_blend_parameter_enabled.exit
    i32 4, label %_blendif_blend_parameter_enabled.exit
    i32 7, label %_blendif_blend_parameter_enabled.exit
    i32 37, label %_blendif_blend_parameter_enabled.exit
    i32 38, label %_blendif_blend_parameter_enabled.exit
    i32 39, label %_blendif_blend_parameter_enabled.exit
    i32 33, label %_blendif_blend_parameter_enabled.exit
    i32 34, label %_blendif_blend_parameter_enabled.exit
    i32 35, label %_blendif_blend_parameter_enabled.exit
  ]

_blendif_blend_parameter_enabled.exit:            ; preds = %23, %23, %23, %23, %23, %23, %23, %23, %23
  %25 = getelementptr inbounds nuw i8, ptr %1, i64 320
  %26 = load ptr, ptr %25, align 8, !tbaa !222
  tail call void @gtk_widget_show(ptr noundef %26) #18
  br label %32

27:                                               ; preds = %23, %17
  %28 = getelementptr inbounds nuw i8, ptr %10, i64 12
  store float 0.000000e+00, ptr %28, align 4, !tbaa !223
  %29 = getelementptr inbounds nuw i8, ptr %1, i64 320
  %30 = load ptr, ptr %29, align 8, !tbaa !222
  tail call void @dt_bauhaus_slider_set(ptr noundef %30, float noundef 0.000000e+00) #18
  %31 = load ptr, ptr %29, align 8, !tbaa !222
  tail call void @gtk_widget_hide(ptr noundef %31) #18
  br label %32

32:                                               ; preds = %27, %_blendif_blend_parameter_enabled.exit
  %33 = load ptr, ptr getelementptr inbounds nuw (i8, ptr @darktable, i64 64), align 8, !tbaa !119
  %34 = load ptr, ptr %7, align 8, !tbaa !79
  tail call void @dt_dev_add_history_item(ptr noundef %33, ptr noundef %34, i32 noundef 1) #18
  br label %35

35:                                               ; preds = %6, %32, %2
  ret void
}